; Function Attrs: nofree nosync nounwind memory(read, inaccessiblemem: none) uwtable
define internal fastcc range(i32 1, -2147483648) i32 @quantifiers_memory_node_info(ptr noundef readonly captures(none) %0) unnamed_addr #17 {
  br label %tailrecurse.outer

tailrecurse.outer:                                ; preds = %31, %1
  %accumulator.tr.ph = phi i32 [ %spec.select45, %31 ], [ -2147483648, %1 ]
  %.tr.ph = phi ptr [ %30, %31 ], [ %0, %1 ]
  br label %tailrecurse

tailrecurse:                                      ; preds = %tailrecurse.backedge, %tailrecurse.outer
  %.tr = phi ptr [ %.tr.ph, %tailrecurse.outer ], [ %.tr.be, %tailrecurse.backedge ]
  %2 = load i32, ptr %.tr, align 8, !tbaa !20
  switch i32 %2, label %.loopexit [
    i32 7, label %.preheader
    i32 8, label %.preheader
    i32 9, label %9
    i32 4, label %13
    i32 5, label %16
  ]

.preheader:                                       ; preds = %tailrecurse, %tailrecurse
  br label %3

3:                                                ; preds = %.preheader, %3
  %.030 = phi i32 [ %spec.select, %3 ], [ 1, %.preheader ]
  %.028 = phi ptr [ %8, %3 ], [ %.tr, %.preheader ]
  %4 = getelementptr inbounds nuw i8, ptr %.028, i64 16
  %5 = load ptr, ptr %4, align 8, !tbaa !20
  %6 = tail call fastcc i32 @quantifiers_memory_node_info(ptr noundef %5)
  %spec.select = tail call i32 @llvm.smax.i32(i32 %6, i32 %.030)
  %7 = getelementptr inbounds nuw i8, ptr %.028, i64 24
  %8 = load ptr, ptr %7, align 8, !tbaa !20
  %.not43 = icmp eq ptr %8, null
  br i1 %.not43, label %.loopexit, label %3, !llvm.loop !273

9:                                                ; preds = %tailrecurse
  %10 = getelementptr inbounds nuw i8, ptr %.tr, i64 4
  %11 = load i32, ptr %10, align 4, !tbaa !20
  %12 = and i32 %11, 64
  %.not42 = icmp eq i32 %12, 0
  br i1 %.not42, label %tailrecurse.backedge, label %.loopexit

tailrecurse.backedge:                             ; preds = %16, %16, %13, %9
  %.tr.be.in = getelementptr inbounds nuw i8, ptr %.tr, i64 16
  %.tr.be = load ptr, ptr %.tr.be.in, align 8, !tbaa !20
  br label %tailrecurse

13:                                               ; preds = %tailrecurse
  %14 = getelementptr inbounds nuw i8, ptr %.tr, i64 28
  %15 = load i32, ptr %14, align 4, !tbaa !138
  %.not41 = icmp eq i32 %15, 0
  br i1 %.not41, label %.loopexit, label %tailrecurse.backedge

16:                                               ; preds = %tailrecurse
  %17 = getelementptr inbounds nuw i8, ptr %.tr, i64 24
  %18 = load i32, ptr %17, align 8, !tbaa !98
  switch i32 %18, label %.loopexit [
    i32 0, label %32
    i32 1, label %tailrecurse.backedge
    i32 2, label %tailrecurse.backedge
    i32 3, label %19
  ]

19:                                               ; preds = %16
  %20 = getelementptr inbounds nuw i8, ptr %.tr, i64 16
  %21 = load ptr, ptr %20, align 8, !tbaa !20
  %22 = tail call fastcc i32 @quantifiers_memory_node_info(ptr noundef %21)
  %23 = getelementptr inbounds nuw i8, ptr %.tr, i64 32
  %24 = load ptr, ptr %23, align 8, !tbaa !20
  %.not = icmp eq ptr %24, null
  br i1 %.not, label %28, label %25

25:                                               ; preds = %19
  %26 = tail call fastcc i32 @quantifiers_memory_node_info(ptr noundef nonnull %24)
  %27 = tail call i32 @llvm.umax.i32(i32 %26, i32 %22)
  br label %28

28:                                               ; preds = %25, %19
  %.6 = phi i32 [ %22, %19 ], [ %27, %25 ]
  %29 = getelementptr inbounds nuw i8, ptr %.tr, i64 40
  %30 = load ptr, ptr %29, align 8, !tbaa !20
  %.not39 = icmp eq ptr %30, null
  br i1 %.not39, label %.loopexit, label %31

31:                                               ; preds = %28
  %spec.select45 = tail call i32 @llvm.smax.i32(i32 %accumulator.tr.ph, i32 %.6)
  br label %tailrecurse.outer

32:                                               ; preds = %16
  %33 = getelementptr inbounds nuw i8, ptr %.tr, i64 4
  %34 = load i32, ptr %33, align 4, !tbaa !20
  %35 = and i32 %34, 64
  %.not40 = icmp eq i32 %35, 0
  %. = select i1 %.not40, i32 2, i32 3
  br label %.loopexit

.loopexit:                                        ; preds = %28, %16, %tailrecurse, %13, %9, %3, %32
  %.0 = phi i32 [ %., %32 ], [ %spec.select, %3 ], [ 3, %9 ], [ 1, %tailrecurse ], [ 1, %13 ], [ 1, %16 ], [ %.6, %28 ]
  %accumulator.ret.tr = tail call i32 @llvm.smax.i32(i32 %accumulator.tr.ph, i32 %.0)
  ret i32 %accumulator.ret.tr
}